target datalayout = "e-m:e-p270:32:32-p271:32:32-p272:64:64-i64:64-i128:128-f80:128-n8:16:32:64-S128"
target triple = "x86_64-pc-linux-gnu"

%struct.SDL_Camera = type { ptr, ptr, i32, %struct.SDL_AtomicInt, ptr, ptr, ptr, ptr, i32, %struct.SDL_CameraSpec, %struct.SDL_CameraSpec, i32, ptr, i32, i64, i64, ptr, ptr, [8 x %struct.SurfaceList], %struct.SurfaceList, %struct.SurfaceList, %struct.SurfaceList, ptr, i32, i8, %struct.SDL_AtomicInt, %struct.SDL_AtomicInt, ptr, i32, i32, ptr }
%struct.SDL_CameraSpec = type { i32, i32, i32, i32, i32, i32 }
%struct.SurfaceList = type { ptr, i64, ptr }
%struct.SDL_AtomicInt = type { i32 }
%struct.SDL_PrivateCameraData = type { i32, i32, i32, ptr, i32 }
%struct.buffer = type { ptr, i64, i32 }

; Function Attrs: nounwind uwtable
define internal zeroext i1 @AllocBufferUserPtr(ptr noundef %0, i64 noundef %1) #0 {
  %3 = alloca i1, align 1
  %4 = alloca ptr, align 8
  %5 = alloca i64, align 8
  %6 = alloca i32, align 4
  %7 = alloca i32, align 4
  store ptr %0, ptr %4, align 8
  store i64 %1, ptr %5, align 8
  call void @llvm.lifetime.start.p0(i64 4, ptr %6) #8
  store i32 0, ptr %6, align 4
  br label %8

8:                                                ; preds = %51, %2
  %9 = load i32, ptr %6, align 4
  %10 = load ptr, ptr %4, align 8
  %11 = getelementptr inbounds nuw %struct.SDL_Camera, ptr %10, i32 0, i32 30
  %12 = load ptr, ptr %11, align 8
  %13 = getelementptr inbounds nuw %struct.SDL_PrivateCameraData, ptr %12, i32 0, i32 2
  %14 = load i32, ptr %13, align 8
  %15 = icmp slt i32 %9, %14
  br i1 %15, label %16, label %54

16:                                               ; preds = %8
  %17 = load i64, ptr %5, align 8
  %18 = load ptr, ptr %4, align 8
  %19 = getelementptr inbounds nuw %struct.SDL_Camera, ptr %18, i32 0, i32 30
  %20 = load ptr, ptr %19, align 8
  %21 = getelementptr inbounds nuw %struct.SDL_PrivateCameraData, ptr %20, i32 0, i32 3
  %22 = load ptr, ptr %21, align 8
  %23 = load i32, ptr %6, align 4
  %24 = sext i32 %23 to i64
  %25 = getelementptr inbounds %struct.buffer, ptr %22, i64 %24
  %26 = getelementptr inbounds nuw %struct.buffer, ptr %25, i32 0, i32 1
  store i64 %17, ptr %26, align 8
  %27 = load i64, ptr %5, align 8
  %28 = call noalias ptr @SDL_calloc_REAL(i64 noundef 1, i64 noundef %27) #10
  %29 = load ptr, ptr %4, align 8
  %30 = getelementptr inbounds nuw %struct.SDL_Camera, ptr %29, i32 0, i32 30
  %31 = load ptr, ptr %30, align 8
  %32 = getelementptr inbounds nuw %struct.SDL_PrivateCameraData, ptr %31, i32 0, i32 3
  %33 = load ptr, ptr %32, align 8
  %34 = load i32, ptr %6, align 4
  %35 = sext i32 %34 to i64
  %36 = getelementptr inbounds %struct.buffer, ptr %33, i64 %35
  %37 = getelementptr inbounds nuw %struct.buffer, ptr %36, i32 0, i32 0
  store ptr %28, ptr %37, align 8
  %38 = load ptr, ptr %4, align 8
  %39 = getelementptr inbounds nuw %struct.SDL_Camera, ptr %38, i32 0, i32 30
  %40 = load ptr, ptr %39, align 8
  %41 = getelementptr inbounds nuw %struct.SDL_PrivateCameraData, ptr %40, i32 0, i32 3
  %42 = load ptr, ptr %41, align 8
  %43 = load i32, ptr %6, align 4
  %44 = sext i32 %43 to i64
  %45 = getelementptr inbounds %struct.buffer, ptr %42, i64 %44
  %46 = getelementptr inbounds nuw %struct.buffer, ptr %45, i32 0, i32 0
  %47 = load ptr, ptr %46, align 8
  %48 = icmp ne ptr %47, null
  br i1 %48, label %50, label %49

49:                                               ; preds = %16
  store i1 false, ptr %3, align 1
  store i32 1, ptr %7, align 4
  br label %55

50:                                               ; preds = %16
  br label %51

51:                                               ; preds = %50
  %52 = load i32, ptr %6, align 4
  %53 = add nsw i32 %52, 1
  store i32 %53, ptr %6, align 4
  br label %8, !llvm.loop !21

54:                                               ; preds = %8
  store i1 true, ptr %3, align 1
  store i32 1, ptr %7, align 4
  br label %55

55:                                               ; preds = %54, %49
  call void @llvm.lifetime.end.p0(i64 4, ptr %6) #8
  %56 = load i1, ptr %3, align 1
  ret i1 %56
}