; Function Attrs: nounwind uwtable
define internal fastcc noundef zeroext i1 @AllocBufferUserPtr(ptr noundef readonly captures(none) %0, i64 noundef %1) unnamed_addr #1 {
  %3 = getelementptr inbounds nuw i8, ptr %0, i64 464
  %4 = load ptr, ptr %3, align 8
  %5 = getelementptr inbounds nuw i8, ptr %4, i64 8
  %6 = load i32, ptr %5, align 8
  %7 = icmp slt i32 %6, 1
  br i1 %7, label %._crit_edge, label %.lr.ph.preheader

.lr.ph.preheader:                                 ; preds = %2
  %.phi.trans.insert = getelementptr inbounds nuw i8, ptr %4, i64 16
  %.pre = load ptr, ptr %.phi.trans.insert, align 8
  br label %.lr.ph

8:                                                ; preds = %.lr.ph
  %indvars.iv.next = add nuw nsw i64 %indvars.iv, 1
  %9 = getelementptr inbounds nuw i8, ptr %19, i64 8
  %10 = load i32, ptr %9, align 8
  %11 = sext i32 %10 to i64
  %.not15 = icmp slt i64 %indvars.iv.next, %11
  br i1 %.not15, label %.lr.ph, label %._crit_edge, !llvm.loop !18

.lr.ph:                                           ; preds = %.lr.ph.preheader, %8
  %12 = phi ptr [ %.pre, %.lr.ph.preheader ], [ %21, %8 ]
  %indvars.iv = phi i64 [ 0, %.lr.ph.preheader ], [ %indvars.iv.next, %8 ]
  %13 = getelementptr inbounds nuw %struct.buffer, ptr %12, i64 %indvars.iv, i32 1
  store i64 %1, ptr %13, align 8
  %14 = tail call noalias ptr @SDL_calloc_REAL(i64 noundef 1, i64 noundef %1) #13
  %15 = load ptr, ptr %3, align 8
  %16 = getelementptr inbounds nuw i8, ptr %15, i64 16
  %17 = load ptr, ptr %16, align 8
  %18 = getelementptr inbounds nuw %struct.buffer, ptr %17, i64 %indvars.iv
  store ptr %14, ptr %18, align 8
  %19 = load ptr, ptr %3, align 8
  %20 = getelementptr inbounds nuw i8, ptr %19, i64 16
  %21 = load ptr, ptr %20, align 8
  %22 = getelementptr inbounds nuw %struct.buffer, ptr %21, i64 %indvars.iv
  %23 = load ptr, ptr %22, align 8
  %.not.not.not = icmp ne ptr %23, null
  br i1 %.not.not.not, label %8, label %._crit_edge

._crit_edge:                                      ; preds = %.lr.ph, %8, %2
  %.lcssa = phi i1 [ true, %2 ], [ %.not.not.not, %8 ], [ %.not.not.not, %.lr.ph ]
  ret i1 %.lcssa
}